(dp0
S'modem_sound'
p1
I00
sS'preferred'
p2
S'stable'
p3
sS'latest_version'
p4
(dp5
S'alpha'
p6
S'3.0-rc-1'
p7
sS'stable'
p8
S'2.3.25-16'
p9
ssS'installed_version'
p10
(dp11
g6
I00
sg8
I00
ssS'check_for_updates'
p12
I00
sS'mirror'
p13
S'http://extras.freepto.mx/torproject/dist/'
p14
sS'tbl_version'
p15
S'0.0.4'
p16
sS'update_over_tor'
p17
I01
sS'last_update_check_timestamp'
p18
I1386525184
s.